target datalayout = "e-m:e-p270:32:32-p271:32:32-p272:64:64-i64:64-i128:128-f80:128-n8:16:32:64-S128"
target triple = "x86_64-pc-linux-gnu"

; Function Attrs: mustprogress nounwind uwtable
define hidden noundef i64 @_ZN2os4sendEiPcmj(i32 noundef %0, ptr noundef %1, i64 noundef %2, i32 noundef %3) #1 align 2 {
  %5 = alloca i32, align 4
  %6 = alloca ptr, align 8
  %7 = alloca i64, align 8
  %8 = alloca i32, align 4
  %9 = alloca i64, align 8
  store i32 %0, ptr %5, align 4
  store ptr %1, ptr %6, align 8
  store i64 %2, ptr %7, align 8
  store i32 %3, ptr %8, align 4
  br label %10

10:                                               ; preds = %4
  br label %11

11:                                               ; preds = %25, %10
  %12 = load i32, ptr %5, align 4
  %13 = load ptr, ptr %6, align 8
  %14 = load i64, ptr %7, align 8
  %15 = load i32, ptr %8, align 4
  %16 = call i64 @send(i32 noundef %12, ptr noundef %13, i64 noundef %14, i32 noundef %15)
  store i64 %16, ptr %9, align 8
  br label %17

17:                                               ; preds = %11
  %18 = load i64, ptr %9, align 8
  %19 = trunc i64 %18 to i32
  %20 = icmp eq i32 %19, -1
  br i1 %20, label %21, label %25

21:                                               ; preds = %17
  %22 = call ptr @__errno_location() #14
  %23 = load i32, ptr %22, align 4
  %24 = icmp eq i32 %23, 4
  br label %25

25:                                               ; preds = %21, %17
  %26 = phi i1 [ false, %17 ], [ %24, %21 ]
  br i1 %26, label %11, label %27, !llvm.loop !18

27:                                               ; preds = %25
  %28 = load i64, ptr %9, align 8
  ret i64 %28

29:                                               ; No predecessors!
  call void @llvm.trap()
  unreachable
}

; Function Attrs: mustprogress nounwind uwtable
define hidden noundef i64 @_ZN2os8raw_sendEiPcmj(i32 noundef %0, ptr noundef %1, i64 noundef %2, i32 noundef %3) #1 align 2 {
  %5 = alloca i32, align 4
  %6 = alloca ptr, align 8
  %7 = alloca i64, align 8
  %8 = alloca i32, align 4
  store i32 %0, ptr %5, align 4
  store ptr %1, ptr %6, align 8
  store i64 %2, ptr %7, align 8
  store i32 %3, ptr %8, align 4
  %9 = load i32, ptr %5, align 4
  %10 = load ptr, ptr %6, align 8
  %11 = load i64, ptr %7, align 8
  %12 = load i32, ptr %8, align 4
  %13 = call noundef i64 @_ZN2os4sendEiPcmj(i32 noundef %9, ptr noundef %10, i64 noundef %11, i32 noundef %12)
  ret i64 %13
}