; Function Attrs: mustprogress nounwind uwtable
define hidden noundef i64 @_ZN2os8raw_sendEiPcmj(i32 noundef %0, ptr noundef %1, i64 noundef %2, i32 noundef %3) local_unnamed_addr #1 align 2 {
  br label %5

5:                                                ; preds = %9, %4
  %6 = tail call i64 @send(i32 noundef %0, ptr noundef %1, i64 noundef %2, i32 noundef %3) #25
  %7 = and i64 %6, 4294967295
  %8 = icmp eq i64 %7, 4294967295
  br i1 %8, label %9, label %_ZN2os4sendEiPcmj.exit

9:                                                ; preds = %5
  %10 = tail call ptr @__errno_location() #26
  %11 = load i32, ptr %10, align 4
  %12 = icmp eq i32 %11, 4
  br i1 %12, label %5, label %_ZN2os4sendEiPcmj.exit, !llvm.loop !17

_ZN2os4sendEiPcmj.exit:                           ; preds = %5, %9
  ret i64 %6
}